target datalayout = "e-m:e-p270:32:32-p271:32:32-p272:64:64-i64:64-i128:128-f80:128-n8:16:32:64-S128"
target triple = "x86_64-pc-linux-gnu"

; Function Attrs: nounwind uwtable
define hidden double @get_cpu_load(i32 noundef %0) #0 {
  %2 = alloca double, align 8
  %3 = alloca i32, align 4
  %4 = alloca double, align 8
  %5 = alloca double, align 8
  store i32 %0, ptr %3, align 4
  %6 = load i32, ptr %3, align 4
  %7 = call double @get_cpuload_internal(i32 noundef %6, ptr noundef %5, i32 noundef 1)
  store double %7, ptr %4, align 8
  %8 = load double, ptr %4, align 8
  %9 = fcmp olt double %8, 0.000000e+00
  br i1 %9, label %10, label %11

10:                                               ; preds = %1
  store double -1.000000e+00, ptr %2, align 8
  br label %23

11:                                               ; preds = %1
  %12 = load double, ptr %4, align 8
  %13 = load double, ptr %5, align 8
  %14 = fadd double %12, %13
  %15 = fcmp olt double %14, 1.000000e+00
  br i1 %15, label %16, label %20

16:                                               ; preds = %11
  %17 = load double, ptr %4, align 8
  %18 = load double, ptr %5, align 8
  %19 = fadd double %17, %18
  br label %21

20:                                               ; preds = %11
  br label %21

21:                                               ; preds = %20, %16
  %22 = phi double [ %19, %16 ], [ 1.000000e+00, %20 ]
  store double %22, ptr %2, align 8
  br label %23

23:                                               ; preds = %21, %10
  %24 = load double, ptr %2, align 8
  ret double %24
}