; Function Attrs: nounwind uwtable
define hidden double @get_cpu_load(i32 noundef %0) local_unnamed_addr #0 {
  %2 = alloca double, align 8
  %3 = call fastcc double @get_cpuload_internal(i32 noundef %0, ptr noundef nonnull %2, i32 noundef 1)
  %4 = fcmp olt double %3, 0.000000e+00
  br i1 %4, label %10, label %5

5:                                                ; preds = %1
  %6 = load double, ptr %2, align 8
  %7 = fadd double %3, %6
  %8 = fcmp olt double %7, 1.000000e+00
  %9 = select i1 %8, double %7, double 1.000000e+00
  br label %10

10:                                               ; preds = %1, %5
  %.0 = phi double [ %9, %5 ], [ -1.000000e+00, %1 ]
  ret double %.0
}